target datalayout = "e-m:e-p270:32:32-p271:32:32-p272:64:64-i64:64-i128:128-f80:128-n8:16:32:64-S128"
target triple = "x86_64-pc-linux-gnu"

%"class.std::__cxx11::basic_string" = type { %"struct.std::__cxx11::basic_string<char>::_Alloc_hider", i64, %union.anon }
%"struct.std::__cxx11::basic_string<char>::_Alloc_hider" = type { ptr }
%union.anon = type { i64, [8 x i8] }
%"class.std::vector.29" = type { %"struct.std::_Vector_base.30" }
%"struct.std::_Vector_base.30" = type { %"struct.std::_Vector_base<int, std::allocator<int>>::_Vector_impl" }
%"struct.std::_Vector_base<int, std::allocator<int>>::_Vector_impl" = type { %"struct.std::_Vector_base<int, std::allocator<int>>::_Vector_impl_data" }
%"struct.std::_Vector_base<int, std::allocator<int>>::_Vector_impl_data" = type { ptr, ptr, ptr }
%"struct.Yosys::hashlib::hash_ops" = type { i8 }
%"struct.(anonymous namespace)::SimWorker" = type { %"struct.(anonymous namespace)::SimShared.base", ptr, %"class.Yosys::hashlib::pool", %"class.Yosys::hashlib::pool", %"class.Yosys::hashlib::pool", %"class.Yosys::hashlib::pool", %"class.std::__cxx11::basic_string", %"class.std::__cxx11::basic_string", %"class.std::__cxx11::basic_string", %"class.std::__cxx11::basic_string", %"class.std::__cxx11::basic_string" }
%"struct.(anonymous namespace)::SimShared.base" = type <{ i8, i8, i8, i8, i8, i8, [2 x i8], i32, [4 x i8], ptr, double, double, i32, i8, [3 x i8], %"class.std::vector.9", %"class.std::vector.14", i8, i8, i8, i8, i32, i32, [4 x i8], %"class.std::vector.19", %"class.std::vector.24", i8, i8 }>
%"class.std::vector.9" = type { %"struct.std::_Vector_base.10" }
%"struct.std::_Vector_base.10" = type { %"struct.std::_Vector_base<std::unique_ptr<(anonymous namespace)::OutputWriter>, std::allocator<std::unique_ptr<(anonymous namespace)::OutputWriter>>>::_Vector_impl" }
%"struct.std::_Vector_base<std::unique_ptr<(anonymous namespace)::OutputWriter>, std::allocator<std::unique_ptr<(anonymous namespace)::OutputWriter>>>::_Vector_impl" = type { %"struct.std::_Vector_base<std::unique_ptr<(anonymous namespace)::OutputWriter>, std::allocator<std::unique_ptr<(anonymous namespace)::OutputWriter>>>::_Vector_impl_data" }
%"struct.std::_Vector_base<std::unique_ptr<(anonymous namespace)::OutputWriter>, std::allocator<std::unique_ptr<(anonymous namespace)::OutputWriter>>>::_Vector_impl_data" = type { ptr, ptr, ptr }
%"class.std::vector.14" = type { %"struct.std::_Vector_base.15" }
%"struct.std::_Vector_base.15" = type { %"struct.std::_Vector_base<std::pair<int, std::map<int, Yosys::RTLIL::Const>>, std::allocator<std::pair<int, std::map<int, Yosys::RTLIL::Const>>>>::_Vector_impl" }
%"struct.std::_Vector_base<std::pair<int, std::map<int, Yosys::RTLIL::Const>>, std::allocator<std::pair<int, std::map<int, Yosys::RTLIL::Const>>>>::_Vector_impl" = type { %"struct.std::_Vector_base<std::pair<int, std::map<int, Yosys::RTLIL::Const>>, std::allocator<std::pair<int, std::map<int, Yosys::RTLIL::Const>>>>::_Vector_impl_data" }
%"struct.std::_Vector_base<std::pair<int, std::map<int, Yosys::RTLIL::Const>>, std::allocator<std::pair<int, std::map<int, Yosys::RTLIL::Const>>>>::_Vector_impl_data" = type { ptr, ptr, ptr }
%"class.std::vector.19" = type { %"struct.std::_Vector_base.20" }
%"struct.std::_Vector_base.20" = type { %"struct.std::_Vector_base<(anonymous namespace)::TriggeredAssertion, std::allocator<(anonymous namespace)::TriggeredAssertion>>::_Vector_impl" }
%"struct.std::_Vector_base<(anonymous namespace)::TriggeredAssertion, std::allocator<(anonymous namespace)::TriggeredAssertion>>::_Vector_impl" = type { %"struct.std::_Vector_base<(anonymous namespace)::TriggeredAssertion, std::allocator<(anonymous namespace)::TriggeredAssertion>>::_Vector_impl_data" }
%"struct.std::_Vector_base<(anonymous namespace)::TriggeredAssertion, std::allocator<(anonymous namespace)::TriggeredAssertion>>::_Vector_impl_data" = type { ptr, ptr, ptr }
%"class.std::vector.24" = type { %"struct.std::_Vector_base.25" }
%"struct.std::_Vector_base.25" = type { %"struct.std::_Vector_base<(anonymous namespace)::DisplayOutput, std::allocator<(anonymous namespace)::DisplayOutput>>::_Vector_impl" }
%"struct.std::_Vector_base<(anonymous namespace)::DisplayOutput, std::allocator<(anonymous namespace)::DisplayOutput>>::_Vector_impl" = type { %"struct.std::_Vector_base<(anonymous namespace)::DisplayOutput, std::allocator<(anonymous namespace)::DisplayOutput>>::_Vector_impl_data" }
%"struct.std::_Vector_base<(anonymous namespace)::DisplayOutput, std::allocator<(anonymous namespace)::DisplayOutput>>::_Vector_impl_data" = type { ptr, ptr, ptr }
%"class.Yosys::hashlib::pool" = type <{ %"class.std::vector.29", %"class.std::vector.34", %"struct.Yosys::hashlib::hash_ops", [7 x i8] }>
%"class.std::vector.34" = type { %"struct.std::_Vector_base.35" }
%"struct.std::_Vector_base.35" = type { %"struct.std::_Vector_base<Yosys::hashlib::pool<Yosys::RTLIL::IdString>::entry_t, std::allocator<Yosys::hashlib::pool<Yosys::RTLIL::IdString>::entry_t>>::_Vector_impl" }
%"struct.std::_Vector_base<Yosys::hashlib::pool<Yosys::RTLIL::IdString>::entry_t, std::allocator<Yosys::hashlib::pool<Yosys::RTLIL::IdString>::entry_t>>::_Vector_impl" = type { %"struct.std::_Vector_base<Yosys::hashlib::pool<Yosys::RTLIL::IdString>::entry_t, std::allocator<Yosys::hashlib::pool<Yosys::RTLIL::IdString>::entry_t>>::_Vector_impl_data" }
%"struct.std::_Vector_base<Yosys::hashlib::pool<Yosys::RTLIL::IdString>::entry_t, std::allocator<Yosys::hashlib::pool<Yosys::RTLIL::IdString>::entry_t>>::_Vector_impl_data" = type { ptr, ptr, ptr }
%"struct.(anonymous namespace)::SimShared" = type <{ i8, i8, i8, i8, i8, i8, [2 x i8], i32, [4 x i8], ptr, double, double, i32, i8, [3 x i8], %"class.std::vector.9", %"class.std::vector.14", i8, i8, i8, i8, i32, i32, [4 x i8], %"class.std::vector.19", %"class.std::vector.24", i8, i8, [6 x i8] }>

@.str.196 = private unnamed_addr constant [12 x i8] c"\0A-- ph1 --\0A\00", align 1
@.str.197 = private unnamed_addr constant [12 x i8] c"\0A-- ph2 --\0A\00", align 1
@.str.198 = private unnamed_addr constant [12 x i8] c"\0A-- ph3 --\0A\00", align 1

; Function Attrs: mustprogress uwtable
define internal void @_ZN12_GLOBAL__N_19SimWorker6updateEb(ptr noundef nonnull align 8 dereferenceable(560) %0, i1 noundef zeroext %1) #4 align 2 {
  %3 = alloca ptr, align 8
  %4 = alloca i8, align 1
  store ptr %0, ptr %3, align 8
  %5 = zext i1 %1 to i8
  store i8 %5, ptr %4, align 1
  %6 = load ptr, ptr %3, align 8
  %7 = load i8, ptr %4, align 1
  %8 = trunc i8 %7 to i1
  br i1 %8, label %9, label %13

9:                                                ; preds = %2
  %10 = getelementptr inbounds %"struct.(anonymous namespace)::SimShared", ptr %6, i32 0, i32 22
  %11 = load i32, ptr %10, align 8
  %12 = add nsw i32 %11, 1
  store i32 %12, ptr %10, align 8
  br label %13

13:                                               ; preds = %9, %2
  br label %14

14:                                               ; preds = %33, %13
  %15 = getelementptr inbounds %"struct.(anonymous namespace)::SimShared", ptr %6, i32 0, i32 0
  %16 = load i8, ptr %15, align 8
  %17 = trunc i8 %16 to i1
  br i1 %17, label %18, label %19

18:                                               ; preds = %14
  call void (ptr, ...) @_ZN5Yosys3logEPKcz(ptr noundef @.str.196)
  br label %19

19:                                               ; preds = %18, %14
  %20 = getelementptr inbounds %"struct.(anonymous namespace)::SimWorker", ptr %6, i32 0, i32 1
  %21 = load ptr, ptr %20, align 8
  call void @_ZN12_GLOBAL__N_111SimInstance10update_ph1Ev(ptr noundef nonnull align 8 dereferenceable(1368) %21)
  %22 = getelementptr inbounds %"struct.(anonymous namespace)::SimShared", ptr %6, i32 0, i32 0
  %23 = load i8, ptr %22, align 8
  %24 = trunc i8 %23 to i1
  br i1 %24, label %25, label %26

25:                                               ; preds = %19
  call void (ptr, ...) @_ZN5Yosys3logEPKcz(ptr noundef @.str.197)
  br label %26

26:                                               ; preds = %25, %19
  %27 = getelementptr inbounds %"struct.(anonymous namespace)::SimWorker", ptr %6, i32 0, i32 1
  %28 = load ptr, ptr %27, align 8
  %29 = load i8, ptr %4, align 1
  %30 = trunc i8 %29 to i1
  %31 = call noundef zeroext i1 @_ZN12_GLOBAL__N_111SimInstance10update_ph2Ebb(ptr noundef nonnull align 8 dereferenceable(1368) %28, i1 noundef zeroext %30, i1 noundef zeroext false)
  br i1 %31, label %33, label %32

32:                                               ; preds = %26
  br label %34

33:                                               ; preds = %26
  br label %14, !llvm.loop !87

34:                                               ; preds = %32
  %35 = getelementptr inbounds %"struct.(anonymous namespace)::SimShared", ptr %6, i32 0, i32 0
  %36 = load i8, ptr %35, align 8
  %37 = trunc i8 %36 to i1
  br i1 %37, label %38, label %39

38:                                               ; preds = %34
  call void (ptr, ...) @_ZN5Yosys3logEPKcz(ptr noundef @.str.198)
  br label %39

39:                                               ; preds = %38, %34
  %40 = getelementptr inbounds %"struct.(anonymous namespace)::SimWorker", ptr %6, i32 0, i32 1
  %41 = load ptr, ptr %40, align 8
  %42 = load i8, ptr %4, align 1
  %43 = trunc i8 %42 to i1
  call void @_ZN12_GLOBAL__N_111SimInstance10update_ph3Eb(ptr noundef nonnull align 8 dereferenceable(1368) %41, i1 noundef zeroext %43)
  ret void
}