; Function Attrs: mustprogress uwtable
define internal fastcc void @_ZN12_GLOBAL__N_19SimWorker6updateEb(ptr nocapture noundef nonnull align 8 dereferenceable(560) %0, i1 noundef zeroext %1) unnamed_addr #4 align 2 {
  br i1 %1, label %3, label %7

3:                                                ; preds = %2
  %4 = getelementptr inbounds i8, ptr %0, i64 104
  %5 = load i32, ptr %4, align 8
  %6 = add nsw i32 %5, 1
  store i32 %6, ptr %4, align 8
  br label %7

7:                                                ; preds = %3, %2
  %8 = getelementptr inbounds i8, ptr %0, i64 168
  br label %9

9:                                                ; preds = %18, %7
  %10 = load i8, ptr %0, align 8
  %11 = and i8 %10, 1
  %.not = icmp eq i8 %11, 0
  br i1 %.not, label %13, label %12

12:                                               ; preds = %9
  tail call void (ptr, ...) @_ZN5Yosys3logEPKcz(ptr noundef nonnull @.str.196)
  br label %13

13:                                               ; preds = %12, %9
  %14 = load ptr, ptr %8, align 8
  tail call fastcc void @_ZN12_GLOBAL__N_111SimInstance10update_ph1Ev(ptr noundef nonnull align 8 dereferenceable(1368) %14)
  %15 = load i8, ptr %0, align 8
  %16 = and i8 %15, 1
  %.not3 = icmp eq i8 %16, 0
  br i1 %.not3, label %18, label %17

17:                                               ; preds = %13
  tail call void (ptr, ...) @_ZN5Yosys3logEPKcz(ptr noundef nonnull @.str.197)
  br label %18

18:                                               ; preds = %17, %13
  %19 = load ptr, ptr %8, align 8
  %20 = tail call fastcc noundef zeroext i1 @_ZN12_GLOBAL__N_111SimInstance10update_ph2Ebb(ptr noundef nonnull align 8 dereferenceable(1368) %19, i1 noundef zeroext %1, i1 noundef zeroext false)
  br i1 %20, label %9, label %21, !llvm.loop !52

21:                                               ; preds = %18
  %22 = load i8, ptr %0, align 8
  %23 = and i8 %22, 1
  %.not4 = icmp eq i8 %23, 0
  br i1 %.not4, label %25, label %24

24:                                               ; preds = %21
  tail call void (ptr, ...) @_ZN5Yosys3logEPKcz(ptr noundef nonnull @.str.198)
  br label %25

25:                                               ; preds = %24, %21
  %26 = load ptr, ptr %8, align 8
  tail call fastcc void @_ZN12_GLOBAL__N_111SimInstance10update_ph3Eb(ptr noundef nonnull align 8 dereferenceable(1368) %26, i1 noundef zeroext %1)
  ret void
}